; Function Attrs: mustprogress uwtable
define void @_ZN6duckdb18StructColumnReader16RegisterPrefetchERNS_19ThriftFileTransportEb(ptr noundef nonnull readonly align 8 captures(none) dereferenceable(568) %0, ptr noundef nonnull align 8 dereferenceable(129) %1, i1 noundef zeroext %2) unnamed_addr #3 align 2 {
  %4 = getelementptr inbounds nuw i8, ptr %0, i64 544
  %5 = load ptr, ptr %4, align 8, !tbaa !405
  %6 = getelementptr inbounds nuw i8, ptr %0, i64 552
  %7 = load ptr, ptr %6, align 8, !tbaa !405
  %.not10 = icmp eq ptr %5, %7
  br i1 %.not10, label %._crit_edge, label %.lr.ph

._crit_edge:                                      ; preds = %14, %3
  ret void

.lr.ph:                                           ; preds = %3, %14
  %.sroa.06.011 = phi ptr [ %15, %14 ], [ %5, %3 ]
  %8 = load ptr, ptr %.sroa.06.011, align 8, !tbaa !6
  %.not9 = icmp eq ptr %8, null
  br i1 %.not9, label %14, label %9

9:                                                ; preds = %.lr.ph
  %10 = tail call noundef ptr @_ZNK6duckdb10unique_ptrINS_12ColumnReaderESt14default_deleteIS1_ELb1EEptEv(ptr noundef nonnull align 8 dereferenceable(8) %.sroa.06.011)
  %11 = load ptr, ptr %10, align 8, !tbaa !3
  %12 = getelementptr inbounds nuw i8, ptr %11, i64 80
  %13 = load ptr, ptr %12, align 8
  tail call void %13(ptr noundef nonnull align 8 dereferenceable(544) %10, ptr noundef nonnull align 8 dereferenceable(129) %1, i1 noundef zeroext %2)
  br label %14

14:                                               ; preds = %.lr.ph, %9
  %15 = getelementptr inbounds nuw i8, ptr %.sroa.06.011, i64 8
  %.not = icmp eq ptr %15, %7
  br i1 %.not, label %._crit_edge, label %.lr.ph
}